target datalayout = "e-m:e-p270:32:32-p271:32:32-p272:64:64-i64:64-i128:128-f80:128-n8:16:32:64-S128"
target triple = "x86_64-pc-linux-gnu"

%struct._zend_refcounted_h = type { i32, %union.anon.3 }
%union.anon.3 = type { i32 }
%struct.smart_str = type { ptr, i64 }
%struct._zend_string = type { %struct._zend_refcounted_h, i64, i64, [1 x i8] }

; Function Attrs: nounwind uwtable
define void @php_var_export(ptr noundef %0, i32 noundef %1) #0 {
  %3 = alloca ptr, align 8
  %4 = alloca i32, align 4
  %5 = alloca ptr, align 8
  %6 = alloca i8, align 1
  %7 = alloca ptr, align 8
  %8 = alloca i8, align 1
  %9 = alloca ptr, align 8
  %10 = alloca ptr, align 8
  %11 = alloca ptr, align 8
  %12 = alloca i32, align 4
  %13 = alloca %struct.smart_str, align 8
  store ptr %0, ptr %11, align 8
  store i32 %1, ptr %12, align 4
  call void @llvm.memset.p0.i64(ptr align 8 %13, i8 0, i64 16, i1 false)
  %14 = load ptr, ptr %11, align 8
  %15 = load i32, ptr %12, align 4
  call void @php_var_export_ex(ptr noundef %14, i32 noundef %15, ptr noundef %13)
  store ptr %13, ptr %10, align 8
  %16 = load ptr, ptr %10, align 8
  %17 = load ptr, ptr %16, align 8
  %18 = icmp ne ptr %17, null
  br i1 %18, label %19, label %28

19:                                               ; preds = %2
  %20 = load ptr, ptr %10, align 8
  %21 = load ptr, ptr %20, align 8
  %22 = getelementptr inbounds %struct._zend_string, ptr %21, i32 0, i32 3
  %23 = load ptr, ptr %10, align 8
  %24 = load ptr, ptr %23, align 8
  %25 = getelementptr inbounds %struct._zend_string, ptr %24, i32 0, i32 2
  %26 = load i64, ptr %25, align 8
  %27 = getelementptr inbounds [1 x i8], ptr %22, i64 0, i64 %26
  store i8 0, ptr %27, align 1
  br label %28

28:                                               ; preds = %19, %2
  %29 = getelementptr inbounds %struct.smart_str, ptr %13, i32 0, i32 0
  %30 = load ptr, ptr %29, align 8
  %31 = getelementptr inbounds %struct._zend_string, ptr %30, i32 0, i32 3
  %32 = getelementptr inbounds [1 x i8], ptr %31, i64 0, i64 0
  %33 = getelementptr inbounds %struct.smart_str, ptr %13, i32 0, i32 0
  %34 = load ptr, ptr %33, align 8
  %35 = getelementptr inbounds %struct._zend_string, ptr %34, i32 0, i32 2
  %36 = load i64, ptr %35, align 8
  %37 = call i64 @php_output_write(ptr noundef %32, i64 noundef %36)
  store ptr %13, ptr %9, align 8
  %38 = load ptr, ptr %9, align 8
  store ptr %38, ptr %7, align 8
  store i8 0, ptr %8, align 1
  %39 = load ptr, ptr %7, align 8
  %40 = load ptr, ptr %39, align 8
  %41 = icmp ne ptr %40, null
  br i1 %41, label %42, label %75

42:                                               ; preds = %28
  %43 = load ptr, ptr %7, align 8
  %44 = load ptr, ptr %43, align 8
  %45 = load i8, ptr %8, align 1
  %46 = trunc i8 %45 to i1
  store ptr %44, ptr %5, align 8
  %47 = zext i1 %46 to i8
  store i8 %47, ptr %6, align 1
  %48 = load ptr, ptr %5, align 8
  %49 = getelementptr inbounds %struct._zend_refcounted_h, ptr %48, i32 0, i32 1
  %50 = load i32, ptr %49, align 4
  store i32 %50, ptr %4, align 4
  %51 = load i32, ptr %4, align 4
  %52 = and i32 %51, 1008
  %53 = and i32 %52, 64
  %54 = icmp ne i32 %53, 0
  br i1 %54, label %73, label %55

55:                                               ; preds = %42
  %56 = load ptr, ptr %5, align 8
  store ptr %56, ptr %3, align 8
  %57 = load ptr, ptr %3, align 8
  %58 = load i32, ptr %57, align 4
  %59 = icmp ugt i32 %58, 0
  call void @llvm.assume(i1 %59)
  %60 = load ptr, ptr %3, align 8
  %61 = load i32, ptr %60, align 4
  %62 = add i32 %61, -1
  store i32 %62, ptr %60, align 4
  %63 = icmp eq i32 %62, 0
  br i1 %63, label %64, label %72

64:                                               ; preds = %55
  %65 = load i8, ptr %6, align 1
  %66 = trunc i8 %65 to i1
  br i1 %66, label %67, label %69

67:                                               ; preds = %64
  %68 = load ptr, ptr %5, align 8
  call void @free(ptr noundef %68) #11
  br label %71

69:                                               ; preds = %64
  %70 = load ptr, ptr %5, align 8
  call void @_efree(ptr noundef %70) #11
  br label %71

71:                                               ; preds = %69, %67
  br label %72

72:                                               ; preds = %71, %55
  br label %73

73:                                               ; preds = %72, %42
  %74 = load ptr, ptr %7, align 8
  store ptr null, ptr %74, align 8
  br label %75

75:                                               ; preds = %73, %28
  %76 = load ptr, ptr %7, align 8
  %77 = getelementptr inbounds %struct.smart_str, ptr %76, i32 0, i32 1
  store i64 0, ptr %77, align 8
  ret void
}