; Function Attrs: nounwind uwtable
define void @php_var_export(ptr noundef %0, i32 noundef %1) local_unnamed_addr #0 {
  %3 = alloca %struct.smart_str, align 8
  call void @llvm.memset.p0.i64(ptr noundef nonnull align 8 dereferenceable(16) %3, i8 0, i64 16, i1 false)
  call void @php_var_export_ex(ptr noundef %0, i32 noundef %1, ptr noundef nonnull %3)
  %4 = load ptr, ptr %3, align 8, !nonnull !4, !noundef !4
  %5 = getelementptr inbounds i8, ptr %4, i64 24
  %6 = getelementptr inbounds i8, ptr %4, i64 16
  %7 = load i64, ptr %6, align 8
  %8 = getelementptr inbounds [1 x i8], ptr %5, i64 0, i64 %7
  store i8 0, ptr %8, align 1
  %.pre = load ptr, ptr %3, align 8
  %9 = getelementptr inbounds i8, ptr %.pre, i64 24
  %10 = getelementptr inbounds i8, ptr %.pre, i64 16
  %11 = load i64, ptr %10, align 8
  %12 = call i64 @php_output_write(ptr noundef nonnull %9, i64 noundef %11) #12
  %13 = load ptr, ptr %3, align 8
  %.not19 = icmp eq ptr %13, null
  br i1 %.not19, label %24, label %14

14:                                               ; preds = %2
  %15 = getelementptr inbounds i8, ptr %13, i64 4
  %16 = load i32, ptr %15, align 4
  %17 = and i32 %16, 64
  %.not20 = icmp eq i32 %17, 0
  br i1 %.not20, label %18, label %24

18:                                               ; preds = %14
  %19 = load i32, ptr %13, align 4
  %20 = icmp ne i32 %19, 0
  call void @llvm.assume(i1 %20)
  %21 = add i32 %19, -1
  store i32 %21, ptr %13, align 4
  %22 = icmp eq i32 %21, 0
  br i1 %22, label %23, label %24

23:                                               ; preds = %18
  call void @_efree(ptr noundef nonnull %13) #12
  br label %24

24:                                               ; preds = %14, %23, %18, %2
  ret void
}